; Function Attrs: nounwind uwtable
define dso_local noundef ptr @GetForeignTable(i32 noundef %0) local_unnamed_addr #0 {
  %2 = alloca i8, align 1
  call void @llvm.lifetime.start.p0(i64 1, ptr nonnull %2) #8
  %3 = zext i32 %0 to i64
  %4 = tail call ptr @SearchSysCache1(i32 noundef 33, i64 noundef %3) #8
  %.not = icmp eq ptr %4, null
  br i1 %.not, label %5, label %8

5:                                                ; preds = %1
  %6 = tail call zeroext i1 @errstart_cold(i32 noundef 21, ptr noundef null) #9
  tail call void @llvm.assume(i1 %6)
  %7 = tail call i32 (ptr, ...) @errmsg_internal(ptr noundef nonnull @.str.5, i32 noundef %0) #8
  tail call void @errfinish(ptr noundef nonnull @.str.1, i32 noundef 264, ptr noundef nonnull @__func__.GetForeignTable) #8
  unreachable

8:                                                ; preds = %1
  %9 = getelementptr i8, ptr %4, i64 16
  %.val = load ptr, ptr %9, align 8
  %10 = getelementptr inbounds nuw i8, ptr %.val, i64 22
  %11 = load i8, ptr %10, align 2
  %12 = zext i8 %11 to i64
  %13 = getelementptr inbounds nuw i8, ptr %.val, i64 %12
  %14 = tail call ptr @palloc(i64 noundef 16) #8
  store i32 %0, ptr %14, align 8
  %15 = getelementptr inbounds nuw i8, ptr %13, i64 4
  %16 = load i32, ptr %15, align 4
  %17 = getelementptr inbounds nuw i8, ptr %14, i64 4
  store i32 %16, ptr %17, align 4
  %18 = call i64 @SysCacheGetAttr(i32 noundef 33, ptr noundef nonnull %4, i16 noundef signext 3, ptr noundef nonnull %2) #8
  %19 = load i8, ptr %2, align 1, !range !4, !noundef !5
  %20 = trunc nuw i8 %19 to i1
  br i1 %20, label %23, label %21

21:                                               ; preds = %8
  %22 = call ptr @untransformRelOptions(i64 noundef %18) #8
  br label %23

23:                                               ; preds = %8, %21
  %.sink = phi ptr [ %22, %21 ], [ null, %8 ]
  %24 = getelementptr inbounds nuw i8, ptr %14, i64 8
  store ptr %.sink, ptr %24, align 8
  call void @ReleaseSysCache(ptr noundef nonnull %4) #8
  call void @llvm.lifetime.end.p0(i64 1, ptr nonnull %2) #8
  ret ptr %14
}